; Function Attrs: mustprogress uwtable
define internal void @"_ZNSt17_Function_handlerIFN7rocksdb6StatusERKNS0_13ConfigOptionsERKNSt7__cxx1112basic_stringIcSt11char_traitsIcESaIcEEEPKvPSA_ENS0_12_GLOBAL__N_13$_1EE9_M_invokeERKSt9_Any_dataS4_SC_OSE_OSF_"(ptr dead_on_unwind noalias writable writeonly sret(%"class.rocksdb::Status") align 8 captures(none) initializes((0, 6), (8, 16)) %0, ptr nonnull readnone align 8 captures(none) %1, ptr nonnull readnone align 8 captures(none) %2, ptr nonnull readnone align 8 captures(none) %3, ptr noundef nonnull readonly align 8 captures(none) dereferenceable(8) %4, ptr noundef nonnull readonly align 8 captures(none) dereferenceable(8) %5) #1 align 2 personality ptr @__gxx_personality_v0 {
  tail call void @llvm.experimental.noalias.scope.decl(metadata !699)
  tail call void @llvm.experimental.noalias.scope.decl(metadata !702)
  %7 = load ptr, ptr %4, align 8, !tbaa !590, !noalias !705
  %8 = load ptr, ptr %5, align 8, !tbaa !175, !noalias !705
  tail call void @llvm.experimental.noalias.scope.decl(metadata !706)
  %9 = getelementptr inbounds nuw i8, ptr %7, i64 72
  %10 = load atomic i8, ptr %9 seq_cst, align 1, !noalias !709
  %11 = trunc i8 %10 to i1
  %12 = select i1 %11, ptr @.str.34, ptr @.str.35
  %13 = getelementptr inbounds nuw i8, ptr %8, i64 8
  %14 = load i64, ptr %13, align 8, !tbaa !31, !noalias !709
  %15 = select i1 %11, i64 4, i64 5
  %16 = tail call noundef nonnull align 8 dereferenceable(32) ptr @_ZNSt7__cxx1112basic_stringIcSt11char_traitsIcESaIcEE10_M_replaceEmmPKcm(ptr noundef nonnull align 8 dereferenceable(32) %8, i64 noundef 0, i64 noundef %14, ptr noundef nonnull %12, i64 noundef %15), !noalias !709
  %17 = getelementptr inbounds nuw i8, ptr %0, i64 8
  store ptr null, ptr %17, align 8, !tbaa !143, !alias.scope !710
  tail call void @llvm.memset.p0.i64(ptr noundef nonnull align 8 dereferenceable(16) %0, i8 0, i64 6, i1 false), !alias.scope !710
  ret void
}